; Function Attrs: null_pointer_is_valid sspstrong uwtable
define internal fastcc void @dissect_amqp_0_9_method_stream_publish(ptr noundef %0, ptr noundef %1) unnamed_addr #0 {
  %3 = load i32, ptr @hf_amqp_method_stream_publish_ticket, align 4
  %4 = tail call ptr @proto_tree_add_item(ptr noundef %1, i32 noundef %3, ptr noundef %0, i32 noundef 11, i32 noundef 2, i32 noundef 0)
  %5 = load i32, ptr @hf_amqp_method_stream_publish_exchange, align 4
  %6 = tail call zeroext i8 @tvb_get_uint8(ptr noundef %0, i32 noundef 13)
  %7 = zext i8 %6 to i32
  %8 = tail call ptr @proto_tree_add_item(ptr noundef %1, i32 noundef %5, ptr noundef %0, i32 noundef 14, i32 noundef %7, i32 noundef 0)
  %9 = tail call zeroext i8 @tvb_get_uint8(ptr noundef %0, i32 noundef 13)
  %10 = zext i8 %9 to i32
  %11 = add nuw nsw i32 %10, 14
  %12 = load i32, ptr @hf_amqp_method_stream_publish_routing_key, align 4
  %13 = add nuw nsw i32 %10, 15
  %14 = tail call zeroext i8 @tvb_get_uint8(ptr noundef %0, i32 noundef %11)
  %15 = zext i8 %14 to i32
  %16 = tail call ptr @proto_tree_add_item(ptr noundef %1, i32 noundef %12, ptr noundef %0, i32 noundef %13, i32 noundef %15, i32 noundef 0)
  %17 = tail call zeroext i8 @tvb_get_uint8(ptr noundef %0, i32 noundef %11)
  %18 = zext i8 %17 to i32
  %19 = add nuw nsw i32 %13, %18
  %20 = load i32, ptr @hf_amqp_method_stream_publish_mandatory, align 4
  %21 = tail call ptr @proto_tree_add_item(ptr noundef %1, i32 noundef %20, ptr noundef %0, i32 noundef %19, i32 noundef 1, i32 noundef 0)
  %22 = load i32, ptr @hf_amqp_method_stream_publish_immediate, align 4
  %23 = tail call ptr @proto_tree_add_item(ptr noundef %1, i32 noundef %22, ptr noundef %0, i32 noundef %19, i32 noundef 1, i32 noundef 0)
  ret void
}